target datalayout = "e-m:e-p270:32:32-p271:32:32-p272:64:64-i64:64-i128:128-f80:128-n8:16:32:64-S128"
target triple = "x86_64-pc-linux-gnu"

%class.ciMethod = type { %class.ciMetadata, %class.ciFlags, ptr, ptr, ptr, ptr, ptr, i32, i32, i32, i32, i32, i32, i32, i32, i32, i8, i8, i8, i8, i8, i8, i8, i8, i8, ptr, ptr, ptr, ptr, ptr }
%class.ciMetadata = type { %class.ciBaseObject.base, ptr }
%class.ciBaseObject.base = type <{ ptr, i32 }>
%class.ciFlags = type <{ i32, i8, i8, [2 x i8] }>

@EnableVectorSupport = external global i8, align 1

; Function Attrs: mustprogress nounwind uwtable
define linkonce_odr hidden void @_ZNK8ciMethod15check_is_loadedEv(ptr noundef nonnull align 8 dereferenceable(160) %0) #1 comdat align 2 {
  %2 = alloca ptr, align 8
  store ptr %0, ptr %2, align 8
  ret void
}

; Function Attrs: mustprogress nounwind uwtable
define linkonce_odr hidden noundef i32 @_ZNK8ciMethod12intrinsic_idEv(ptr noundef nonnull align 8 dereferenceable(160) %0) #1 comdat align 2 {
  %2 = alloca ptr, align 8
  store ptr %0, ptr %2, align 8
  %3 = load ptr, ptr %2, align 8
  call void @_ZNK8ciMethod15check_is_loadedEv(ptr noundef nonnull align 8 dereferenceable(160) %3)
  %4 = getelementptr inbounds %class.ciMethod, ptr %3, i32 0, i32 10
  %5 = load i32, ptr %4, align 4
  ret i32 %5
}

; Function Attrs: mustprogress nounwind uwtable
define hidden noundef zeroext i1 @_ZN7Compile37should_delay_vector_reboxing_inliningEP8ciMethodP8JVMState(ptr noundef nonnull align 8 dereferenceable(2316) %0, ptr noundef %1, ptr noundef %2) #1 align 2 {
  %4 = alloca ptr, align 8
  %5 = alloca ptr, align 8
  %6 = alloca ptr, align 8
  store ptr %0, ptr %4, align 8
  store ptr %1, ptr %5, align 8
  store ptr %2, ptr %6, align 8
  %7 = load i8, ptr @EnableVectorSupport, align 1
  %8 = trunc i8 %7 to i1
  br i1 %8, label %9, label %13

9:                                                ; preds = %3
  %10 = load ptr, ptr %5, align 8
  %11 = call noundef i32 @_ZNK8ciMethod12intrinsic_idEv(ptr noundef nonnull align 8 dereferenceable(160) %10)
  %12 = icmp eq i32 %11, 371
  br label %13

13:                                               ; preds = %9, %3
  %14 = phi i1 [ false, %3 ], [ %12, %9 ]
  ret i1 %14
}