; Function Attrs: mustprogress nofree norecurse nosync nounwind willreturn memory(read, inaccessiblemem: none) uwtable
define hidden noundef zeroext i1 @_ZN7Compile37should_delay_vector_reboxing_inliningEP8ciMethodP8JVMState(ptr nocapture noundef nonnull readnone align 8 dereferenceable(2316) %0, ptr nocapture noundef readonly %1, ptr nocapture noundef readnone %2) local_unnamed_addr #2 align 2 {
  %4 = load i8, ptr @EnableVectorSupport, align 1
  %5 = trunc i8 %4 to i1
  br i1 %5, label %6, label %10

6:                                                ; preds = %3
  %7 = getelementptr inbounds i8, ptr %1, i64 84
  %8 = load i32, ptr %7, align 4
  %9 = icmp eq i32 %8, 371
  br label %10

10:                                               ; preds = %6, %3
  %11 = phi i1 [ false, %3 ], [ %9, %6 ]
  ret i1 %11
}